target datalayout = "e-m:e-p270:32:32-p271:32:32-p272:64:64-i64:64-i128:128-f80:128-n8:16:32:64-S128"
target triple = "x86_64-unknown-linux-gnu"

%"class.hermes::sem::Keywords" = type { ptr, ptr, ptr, ptr, ptr, ptr, ptr, ptr, ptr, ptr, ptr, ptr, ptr, ptr }
%"class.hermes::Context" = type { %"class.hermes::BacktrackingBumpPtrAllocator", %"class.hermes::BacktrackingBumpPtrAllocator", %"class.std::unique_ptr", %"class.hermes::StringTable", %"class.std::map", %"class.std::unique_ptr.5", ptr, i8, i8, i8, i32, i32, i8, i8, i8, i8, i8, i32, i8, i8, %"class.std::unique_ptr.13", %"class.std::vector.21", i32, i8, %"struct.hermes::CodeGenerationSettings", %"struct.hermes::OptimizationSettings", %"class.std::shared_ptr" }
%"class.hermes::BacktrackingBumpPtrAllocator" = type { %"class.std::vector", ptr }
%"class.std::vector" = type { %"struct.std::_Vector_base" }
%"struct.std::_Vector_base" = type { %"struct.std::_Vector_base<std::unique_ptr<hermes::BacktrackingBumpPtrAllocator::Slab>, std::allocator<std::unique_ptr<hermes::BacktrackingBumpPtrAllocator::Slab>>>::_Vector_impl" }
%"struct.std::_Vector_base<std::unique_ptr<hermes::BacktrackingBumpPtrAllocator::Slab>, std::allocator<std::unique_ptr<hermes::BacktrackingBumpPtrAllocator::Slab>>>::_Vector_impl" = type { %"struct.std::_Vector_base<std::unique_ptr<hermes::BacktrackingBumpPtrAllocator::Slab>, std::allocator<std::unique_ptr<hermes::BacktrackingBumpPtrAllocator::Slab>>>::_Vector_impl_data" }
%"struct.std::_Vector_base<std::unique_ptr<hermes::BacktrackingBumpPtrAllocator::Slab>, std::allocator<std::unique_ptr<hermes::BacktrackingBumpPtrAllocator::Slab>>>::_Vector_impl_data" = type { ptr, ptr, ptr }
%"class.std::unique_ptr" = type { %"struct.std::__uniq_ptr_data" }
%"struct.std::__uniq_ptr_data" = type { %"class.std::__uniq_ptr_impl" }
%"class.std::__uniq_ptr_impl" = type { %"class.std::tuple" }
%"class.std::tuple" = type { %"struct.std::_Tuple_impl" }
%"struct.std::_Tuple_impl" = type { %"struct.std::_Head_base.1" }
%"struct.std::_Head_base.1" = type { ptr }
%"class.hermes::StringTable" = type { ptr, %"class.llvh::DenseMap" }
%"class.llvh::DenseMap" = type <{ ptr, i32, i32, i32, [4 x i8] }>
%"class.std::map" = type { %"class.std::_Rb_tree" }
%"class.std::_Rb_tree" = type { %"struct.std::_Rb_tree<std::pair<hermes::UniqueString *, hermes::UniqueString *>, std::pair<const std::pair<hermes::UniqueString *, hermes::UniqueString *>, hermes::CompiledRegExp>, std::_Select1st<std::pair<const std::pair<hermes::UniqueString *, hermes::UniqueString *>, hermes::CompiledRegExp>>, std::less<std::pair<hermes::UniqueString *, hermes::UniqueString *>>>::_Rb_tree_impl" }
%"struct.std::_Rb_tree<std::pair<hermes::UniqueString *, hermes::UniqueString *>, std::pair<const std::pair<hermes::UniqueString *, hermes::UniqueString *>, hermes::CompiledRegExp>, std::_Select1st<std::pair<const std::pair<hermes::UniqueString *, hermes::UniqueString *>, hermes::CompiledRegExp>>, std::less<std::pair<hermes::UniqueString *, hermes::UniqueString *>>>::_Rb_tree_impl" = type { %"struct.std::_Rb_tree_key_compare", %"struct.std::_Rb_tree_header" }
%"struct.std::_Rb_tree_key_compare" = type { %"struct.std::less" }
%"struct.std::less" = type { i8 }
%"struct.std::_Rb_tree_header" = type { %"struct.std::_Rb_tree_node_base", i64 }
%"struct.std::_Rb_tree_node_base" = type { i32, ptr, ptr, ptr }
%"class.std::unique_ptr.5" = type { %"struct.std::__uniq_ptr_data.6" }
%"struct.std::__uniq_ptr_data.6" = type { %"class.std::__uniq_ptr_impl.7" }
%"class.std::__uniq_ptr_impl.7" = type { %"class.std::tuple.8" }
%"class.std::tuple.8" = type { %"struct.std::_Tuple_impl.9" }
%"struct.std::_Tuple_impl.9" = type { %"struct.std::_Head_base.12" }
%"struct.std::_Head_base.12" = type { ptr }
%"class.std::unique_ptr.13" = type { %"struct.std::__uniq_ptr_data.14" }
%"struct.std::__uniq_ptr_data.14" = type { %"class.std::__uniq_ptr_impl.15" }
%"class.std::__uniq_ptr_impl.15" = type { %"class.std::tuple.16" }
%"class.std::tuple.16" = type { %"struct.std::_Tuple_impl.17" }
%"struct.std::_Tuple_impl.17" = type { %"struct.std::_Head_base.20" }
%"struct.std::_Head_base.20" = type { ptr }
%"class.std::vector.21" = type { %"struct.std::_Vector_base.22" }
%"struct.std::_Vector_base.22" = type { %"struct.std::_Vector_base<unsigned int, std::allocator<unsigned int>>::_Vector_impl" }
%"struct.std::_Vector_base<unsigned int, std::allocator<unsigned int>>::_Vector_impl" = type { %"struct.std::_Vector_base<unsigned int, std::allocator<unsigned int>>::_Vector_impl_data" }
%"struct.std::_Vector_base<unsigned int, std::allocator<unsigned int>>::_Vector_impl_data" = type { ptr, ptr, ptr }
%"struct.hermes::CodeGenerationSettings" = type { i8, i8, i8, i8, i8, i8, i8, i8, i8, i8, [6 x i8], %"struct.hermes::CodeGenerationSettings_DumpSettings", %"struct.hermes::CodeGenerationSettings_DumpSettings", %"class.llvh::SmallDenseSet" }
%"struct.hermes::CodeGenerationSettings_DumpSettings" = type { i8, [7 x i8], %"class.llvh::SmallDenseSet", %"class.llvh::SmallDenseSet" }
%"class.llvh::SmallDenseSet" = type { %"class.llvh::detail::DenseSetImpl" }
%"class.llvh::detail::DenseSetImpl" = type { %"class.llvh::SmallDenseMap" }
%"class.llvh::SmallDenseMap" = type { i32, i32, %"struct.llvh::AlignedCharArrayUnion" }
%"struct.llvh::AlignedCharArrayUnion" = type { %"struct.llvh::AlignedCharArray" }
%"struct.llvh::AlignedCharArray" = type { [64 x i8] }
%"struct.hermes::OptimizationSettings" = type { i8, i8, i8, i8, i8, i8 }
%"class.std::shared_ptr" = type { %"class.std::__shared_ptr" }
%"class.std::__shared_ptr" = type { ptr, %"class.std::__shared_count" }
%"class.std::__shared_count" = type { ptr }
%"class.hermes::sem::SemanticValidator" = type { ptr, ptr, %"class.hermes::SourceErrorManager::SaveAndBufferMessages", ptr, i32, %"class.hermes::sem::Keywords", ptr, i8, i8, i32 }
%"class.hermes::SourceErrorManager::SaveAndBufferMessages" = type { ptr }
%"class.hermes::sem::FunctionContext" = type { ptr, ptr, ptr, ptr, ptr, ptr, ptr, ptr, ptr, ptr, i8, i32, %"class.llvh::DenseMap.70", %"class.hermes::sem::BlockContext", %"class.llvh::MapVector" }
%"class.llvh::DenseMap.70" = type <{ ptr, i32, i32, i32, [4 x i8] }>
%"class.hermes::sem::BlockContext" = type { ptr, ptr, ptr, ptr, i64 }
%"class.llvh::MapVector" = type { %"class.llvh::DenseMap.73", %"class.std::vector.76" }
%"class.llvh::DenseMap.73" = type <{ ptr, i32, i32, i32, [4 x i8] }>
%"class.std::vector.76" = type { %"struct.std::_Vector_base.77" }
%"struct.std::_Vector_base.77" = type { %"struct.std::_Vector_base<std::pair<const hermes::UniqueString *, llvh::SmallVector<hermes::ESTree::FunctionDeclarationNode *, 4>>, std::allocator<std::pair<const hermes::UniqueString *, llvh::SmallVector<hermes::ESTree::FunctionDeclarationNode *, 4>>>>::_Vector_impl" }
%"struct.std::_Vector_base<std::pair<const hermes::UniqueString *, llvh::SmallVector<hermes::ESTree::FunctionDeclarationNode *, 4>>, std::allocator<std::pair<const hermes::UniqueString *, llvh::SmallVector<hermes::ESTree::FunctionDeclarationNode *, 4>>>>::_Vector_impl" = type { %"struct.std::_Vector_base<std::pair<const hermes::UniqueString *, llvh::SmallVector<hermes::ESTree::FunctionDeclarationNode *, 4>>, std::allocator<std::pair<const hermes::UniqueString *, llvh::SmallVector<hermes::ESTree::FunctionDeclarationNode *, 4>>>>::_Vector_impl_data" }
%"struct.std::_Vector_base<std::pair<const hermes::UniqueString *, llvh::SmallVector<hermes::ESTree::FunctionDeclarationNode *, 4>>, std::allocator<std::pair<const hermes::UniqueString *, llvh::SmallVector<hermes::ESTree::FunctionDeclarationNode *, 4>>>>::_Vector_impl_data" = type { ptr, ptr, ptr }
%"class.hermes::ESTree::Node" = type { %"class.llvh::ilist_node", i32, i32, %"class.llvh::SMRange", %"class.llvh::SMLoc" }
%"class.llvh::ilist_node" = type { %"class.llvh::ilist_node_impl" }
%"class.llvh::ilist_node_impl" = type { %"class.llvh::ilist_node_base" }
%"class.llvh::ilist_node_base" = type { ptr, ptr }
%"class.llvh::SMRange" = type { %"class.llvh::SMLoc", %"class.llvh::SMLoc" }
%"class.llvh::SMLoc" = type { ptr }
%"class.hermes::ESTree::IdentifierNode" = type <{ %"class.hermes::ESTree::Node", ptr, ptr, i8, [7 x i8] }>

; Function Attrs: mustprogress nounwind uwtable
define linkonce_odr hidden noundef i32 @_ZNK6hermes6ESTree4Node7getKindEv(ptr noundef nonnull align 8 dereferenceable(48) %this) #0 comdat align 2 {
entry:
  %this.addr = alloca ptr, align 8
  store ptr %this, ptr %this.addr, align 8
  %this1 = load ptr, ptr %this.addr, align 8
  %kind_ = getelementptr inbounds %"class.hermes::ESTree::Node", ptr %this1, i32 0, i32 1
  %0 = load i32, ptr %kind_, align 8
  ret i32 %0
}

; Function Attrs: mustprogress nounwind uwtable
define linkonce_odr hidden noundef zeroext i1 @_ZN6hermes6ESTree14IdentifierNode7classofEPKNS0_4NodeE(ptr noundef %V) #0 comdat align 2 {
entry:
  %V.addr = alloca ptr, align 8
  store ptr %V, ptr %V.addr, align 8
  %0 = load ptr, ptr %V.addr, align 8
  %call = call noundef i32 @_ZNK6hermes6ESTree4Node7getKindEv(ptr noundef nonnull align 8 dereferenceable(48) %0)
  %cmp = icmp eq i32 %call, 63
  ret i1 %cmp
}

; Function Attrs: mustprogress nounwind uwtable
define linkonce_odr hidden noundef zeroext i1 @_ZN6hermes6ESTree20MemberExpressionNode7classofEPKNS0_4NodeE(ptr noundef %V) #0 comdat align 2 {
entry:
  %V.addr = alloca ptr, align 8
  store ptr %V, ptr %V.addr, align 8
  %0 = load ptr, ptr %V.addr, align 8
  %call = call noundef i32 @_ZNK6hermes6ESTree4Node7getKindEv(ptr noundef nonnull align 8 dereferenceable(48) %0)
  %cmp = icmp eq i32 %call, 55
  ret i1 %cmp
}

; Function Attrs: mustprogress nounwind uwtable
define linkonce_odr hidden noundef zeroext i1 @_ZN4llvh8isa_implIN6hermes6ESTree14IdentifierNodeENS2_4NodeEvE4doitERKS4_(ptr noundef nonnull align 8 dereferenceable(48) %Val) #0 comdat align 2 {
entry:
  %Val.addr = alloca ptr, align 8
  store ptr %Val, ptr %Val.addr, align 8
  %0 = load ptr, ptr %Val.addr, align 8
  %call = call noundef zeroext i1 @_ZN6hermes6ESTree14IdentifierNode7classofEPKNS0_4NodeE(ptr noundef %0)
  ret i1 %call
}

; Function Attrs: mustprogress nounwind uwtable
define linkonce_odr hidden noundef zeroext i1 @_ZN4llvh8isa_implIN6hermes6ESTree20MemberExpressionNodeENS2_4NodeEvE4doitERKS4_(ptr noundef nonnull align 8 dereferenceable(48) %Val) #0 comdat align 2 {
entry:
  %Val.addr = alloca ptr, align 8
  store ptr %Val, ptr %Val.addr, align 8
  %0 = load ptr, ptr %Val.addr, align 8
  %call = call noundef zeroext i1 @_ZN6hermes6ESTree20MemberExpressionNode7classofEPKNS0_4NodeE(ptr noundef %0)
  ret i1 %call
}

; Function Attrs: mustprogress nounwind uwtable
define linkonce_odr hidden noundef zeroext i1 @_ZN4llvh11isa_impl_clIN6hermes6ESTree14IdentifierNodeEPKNS2_4NodeEE4doitES6_(ptr noundef %Val) #0 comdat align 2 {
entry:
  %Val.addr = alloca ptr, align 8
  store ptr %Val, ptr %Val.addr, align 8
  %0 = load ptr, ptr %Val.addr, align 8
  %call = call noundef zeroext i1 @_ZN4llvh8isa_implIN6hermes6ESTree14IdentifierNodeENS2_4NodeEvE4doitERKS4_(ptr noundef nonnull align 8 dereferenceable(48) %0)
  ret i1 %call
}

; Function Attrs: mustprogress nounwind uwtable
define linkonce_odr hidden noundef zeroext i1 @_ZN4llvh11isa_impl_clIN6hermes6ESTree20MemberExpressionNodeEPKNS2_4NodeEE4doitES6_(ptr noundef %Val) #0 comdat align 2 {
entry:
  %Val.addr = alloca ptr, align 8
  store ptr %Val, ptr %Val.addr, align 8
  %0 = load ptr, ptr %Val.addr, align 8
  %call = call noundef zeroext i1 @_ZN4llvh8isa_implIN6hermes6ESTree20MemberExpressionNodeENS2_4NodeEvE4doitERKS4_(ptr noundef nonnull align 8 dereferenceable(48) %0)
  ret i1 %call
}

; Function Attrs: mustprogress nounwind uwtable
define linkonce_odr hidden noundef nonnull align 8 dereferenceable(8) ptr @_ZN4llvh13simplify_typeIPKN6hermes6ESTree4NodeEE18getSimplifiedValueERS5_(ptr noundef nonnull align 8 dereferenceable(8) %Val) #0 comdat align 2 {
entry:
  %Val.addr = alloca ptr, align 8
  store ptr %Val, ptr %Val.addr, align 8
  %0 = load ptr, ptr %Val.addr, align 8
  ret ptr %0
}

; Function Attrs: mustprogress nounwind uwtable
define linkonce_odr hidden noundef zeroext i1 @_ZN4llvh13isa_impl_wrapIN6hermes6ESTree14IdentifierNodeEPKNS2_4NodeES6_E4doitERKS6_(ptr noundef nonnull align 8 dereferenceable(8) %Val) #0 comdat align 2 {
entry:
  %Val.addr = alloca ptr, align 8
  store ptr %Val, ptr %Val.addr, align 8
  %0 = load ptr, ptr %Val.addr, align 8
  %1 = load ptr, ptr %0, align 8
  %call = call noundef zeroext i1 @_ZN4llvh11isa_impl_clIN6hermes6ESTree14IdentifierNodeEPKNS2_4NodeEE4doitES6_(ptr noundef %1)
  ret i1 %call
}

; Function Attrs: mustprogress nounwind uwtable
define linkonce_odr hidden noundef zeroext i1 @_ZN4llvh13isa_impl_wrapIN6hermes6ESTree20MemberExpressionNodeEPKNS2_4NodeES6_E4doitERKS6_(ptr noundef nonnull align 8 dereferenceable(8) %Val) #0 comdat align 2 {
entry:
  %Val.addr = alloca ptr, align 8
  store ptr %Val, ptr %Val.addr, align 8
  %0 = load ptr, ptr %Val.addr, align 8
  %1 = load ptr, ptr %0, align 8
  %call = call noundef zeroext i1 @_ZN4llvh11isa_impl_clIN6hermes6ESTree20MemberExpressionNodeEPKNS2_4NodeEE4doitES6_(ptr noundef %1)
  ret i1 %call
}

; Function Attrs: mustprogress nounwind uwtable
define linkonce_odr hidden noundef ptr @_ZN4llvh13simplify_typeIKPKN6hermes6ESTree4NodeEE18getSimplifiedValueERS6_(ptr noundef nonnull align 8 dereferenceable(8) %Val) #0 comdat align 2 {
entry:
  %Val.addr = alloca ptr, align 8
  store ptr %Val, ptr %Val.addr, align 8
  %0 = load ptr, ptr %Val.addr, align 8
  %call = call noundef nonnull align 8 dereferenceable(8) ptr @_ZN4llvh13simplify_typeIPKN6hermes6ESTree4NodeEE18getSimplifiedValueERS5_(ptr noundef nonnull align 8 dereferenceable(8) %0)
  %1 = load ptr, ptr %call, align 8
  ret ptr %1
}

; Function Attrs: mustprogress nounwind uwtable
define linkonce_odr hidden noundef ptr @_ZN4llvh16cast_convert_valIN6hermes6ESTree14IdentifierNodeEPKNS2_4NodeES6_E4doitERKS6_(ptr noundef nonnull align 8 dereferenceable(8) %Val) #0 comdat align 2 {
entry:
  %Val.addr = alloca ptr, align 8
  %Res2 = alloca ptr, align 8
  store ptr %Val, ptr %Val.addr, align 8
  %0 = load ptr, ptr %Val.addr, align 8
  %1 = load ptr, ptr %0, align 8
  store ptr %1, ptr %Res2, align 8
  %2 = load ptr, ptr %Res2, align 8
  ret ptr %2
}

; Function Attrs: mustprogress nounwind uwtable
define linkonce_odr hidden noundef zeroext i1 @_ZN4llvh13isa_impl_wrapIN6hermes6ESTree14IdentifierNodeEKPKNS2_4NodeES6_E4doitERS7_(ptr noundef nonnull align 8 dereferenceable(8) %Val) #0 comdat align 2 {
entry:
  %Val.addr = alloca ptr, align 8
  %ref.tmp = alloca ptr, align 8
  store ptr %Val, ptr %Val.addr, align 8
  %0 = load ptr, ptr %Val.addr, align 8
  %call = call noundef ptr @_ZN4llvh13simplify_typeIKPKN6hermes6ESTree4NodeEE18getSimplifiedValueERS6_(ptr noundef nonnull align 8 dereferenceable(8) %0)
  store ptr %call, ptr %ref.tmp, align 8
  %call1 = call noundef zeroext i1 @_ZN4llvh13isa_impl_wrapIN6hermes6ESTree14IdentifierNodeEPKNS2_4NodeES6_E4doitERKS6_(ptr noundef nonnull align 8 dereferenceable(8) %ref.tmp)
  ret i1 %call1
}

; Function Attrs: mustprogress nounwind uwtable
define linkonce_odr hidden noundef zeroext i1 @_ZN4llvh13isa_impl_wrapIN6hermes6ESTree20MemberExpressionNodeEKPKNS2_4NodeES6_E4doitERS7_(ptr noundef nonnull align 8 dereferenceable(8) %Val) #0 comdat align 2 {
entry:
  %Val.addr = alloca ptr, align 8
  %ref.tmp = alloca ptr, align 8
  store ptr %Val, ptr %Val.addr, align 8
  %0 = load ptr, ptr %Val.addr, align 8
  %call = call noundef ptr @_ZN4llvh13simplify_typeIKPKN6hermes6ESTree4NodeEE18getSimplifiedValueERS6_(ptr noundef nonnull align 8 dereferenceable(8) %0)
  store ptr %call, ptr %ref.tmp, align 8
  %call1 = call noundef zeroext i1 @_ZN4llvh13isa_impl_wrapIN6hermes6ESTree20MemberExpressionNodeEPKNS2_4NodeES6_E4doitERKS6_(ptr noundef nonnull align 8 dereferenceable(8) %ref.tmp)
  ret i1 %call1
}

; Function Attrs: mustprogress nounwind uwtable
define linkonce_odr hidden noundef zeroext i1 @_ZNK6hermes7Context13getEnableEvalEv(ptr noundef nonnull align 8 dereferenceable(656) %this) #0 comdat align 2 {
entry:
  %this.addr = alloca ptr, align 8
  store ptr %this, ptr %this.addr, align 8
  %this1 = load ptr, ptr %this.addr, align 8
  %enableEval_ = getelementptr inbounds %"class.hermes::Context", ptr %this1, i32 0, i32 8
  %0 = load i8, ptr %enableEval_, align 1
  %tobool = trunc i8 %0 to i1
  ret i1 %tobool
}

; Function Attrs: mustprogress nounwind uwtable
define linkonce_odr hidden noundef ptr @_ZNK6hermes3sem17SemanticValidator11curFunctionEv(ptr noundef nonnull align 8 dereferenceable(168) %this) #0 comdat align 2 {
entry:
  %this.addr = alloca ptr, align 8
  store ptr %this, ptr %this.addr, align 8
  %this1 = load ptr, ptr %this.addr, align 8
  %funcCtx_ = getelementptr inbounds %"class.hermes::sem::SemanticValidator", ptr %this1, i32 0, i32 6
  %0 = load ptr, ptr %funcCtx_, align 8
  ret ptr %0
}

; Function Attrs: mustprogress nounwind uwtable
define linkonce_odr hidden noundef ptr @_ZN4llvh4castIN6hermes6ESTree14IdentifierNodeEKNS2_4NodeEEENS_10cast_rettyIT_PT0_E8ret_typeES9_(ptr noundef %Val) #0 comdat {
entry:
  %Val.addr = alloca ptr, align 8
  store ptr %Val, ptr %Val.addr, align 8
  %call = call noundef ptr @_ZN4llvh16cast_convert_valIN6hermes6ESTree14IdentifierNodeEPKNS2_4NodeES6_E4doitERKS6_(ptr noundef nonnull align 8 dereferenceable(8) %Val.addr)
  ret ptr %call
}

; Function Attrs: mustprogress nounwind uwtable
define linkonce_odr hidden noundef zeroext i1 @_ZN4llvh3isaIN6hermes6ESTree14IdentifierNodeEPKNS2_4NodeEEEbRKT0_(ptr noundef nonnull align 8 dereferenceable(8) %Val) #0 comdat {
entry:
  %Val.addr = alloca ptr, align 8
  store ptr %Val, ptr %Val.addr, align 8
  %0 = load ptr, ptr %Val.addr, align 8
  %call = call noundef zeroext i1 @_ZN4llvh13isa_impl_wrapIN6hermes6ESTree14IdentifierNodeEKPKNS2_4NodeES6_E4doitERS7_(ptr noundef nonnull align 8 dereferenceable(8) %0)
  ret i1 %call
}

; Function Attrs: mustprogress nounwind uwtable
define linkonce_odr hidden noundef zeroext i1 @_ZN4llvh3isaIN6hermes6ESTree20MemberExpressionNodeEPKNS2_4NodeEEEbRKT0_(ptr noundef nonnull align 8 dereferenceable(8) %Val) #0 comdat {
entry:
  %Val.addr = alloca ptr, align 8
  store ptr %Val, ptr %Val.addr, align 8
  %0 = load ptr, ptr %Val.addr, align 8
  %call = call noundef zeroext i1 @_ZN4llvh13isa_impl_wrapIN6hermes6ESTree20MemberExpressionNodeEKPKNS2_4NodeES6_E4doitERS7_(ptr noundef nonnull align 8 dereferenceable(8) %0)
  ret i1 %call
}

; Function Attrs: mustprogress nounwind uwtable
define hidden noundef zeroext i1 @_ZNK6hermes3sem17SemanticValidator8isLValueEPKNS_6ESTree4NodeE(ptr noundef nonnull align 8 dereferenceable(168) %this, ptr noundef %node) #0 align 2 {
entry:
  %retval = alloca i1, align 1
  %this.addr = alloca ptr, align 8
  %node.addr = alloca ptr, align 8
  %idNode = alloca ptr, align 8
  store ptr %this, ptr %this.addr, align 8
  store ptr %node, ptr %node.addr, align 8
  %this1 = load ptr, ptr %this.addr, align 8
  %call = call noundef zeroext i1 @_ZN4llvh3isaIN6hermes6ESTree20MemberExpressionNodeEPKNS2_4NodeEEEbRKT0_(ptr noundef nonnull align 8 dereferenceable(8) %node.addr)
  br i1 %call, label %if.then, label %if.end

if.then:                                          ; preds = %entry
  store i1 true, ptr %retval, align 1
  br label %return

if.end:                                           ; preds = %entry
  %call2 = call noundef zeroext i1 @_ZN4llvh3isaIN6hermes6ESTree14IdentifierNodeEPKNS2_4NodeEEEbRKT0_(ptr noundef nonnull align 8 dereferenceable(8) %node.addr)
  br i1 %call2, label %if.end4, label %if.then3

if.then3:                                         ; preds = %if.end
  store i1 false, ptr %retval, align 1
  br label %return

if.end4:                                          ; preds = %if.end
  %0 = load ptr, ptr %node.addr, align 8
  %call5 = call noundef ptr @_ZN4llvh4castIN6hermes6ESTree14IdentifierNodeEKNS2_4NodeEEENS_10cast_rettyIT_PT0_E8ret_typeES9_(ptr noundef %0)
  store ptr %call5, ptr %idNode, align 8
  %1 = load ptr, ptr %idNode, align 8
  %_name = getelementptr inbounds %"class.hermes::ESTree::IdentifierNode", ptr %1, i32 0, i32 1
  %2 = load ptr, ptr %_name, align 8
  %kw_ = getelementptr inbounds %"class.hermes::sem::SemanticValidator", ptr %this1, i32 0, i32 5
  %identArguments = getelementptr inbounds %"class.hermes::sem::Keywords", ptr %kw_, i32 0, i32 0
  %3 = load ptr, ptr %identArguments, align 8
  %cmp = icmp eq ptr %2, %3
  br i1 %cmp, label %if.then6, label %if.end7

if.then6:                                         ; preds = %if.end4
  store i1 false, ptr %retval, align 1
  br label %return

if.end7:                                          ; preds = %if.end4
  %4 = load ptr, ptr %idNode, align 8
  %_name8 = getelementptr inbounds %"class.hermes::ESTree::IdentifierNode", ptr %4, i32 0, i32 1
  %5 = load ptr, ptr %_name8, align 8
  %kw_9 = getelementptr inbounds %"class.hermes::sem::SemanticValidator", ptr %this1, i32 0, i32 5
  %identEval = getelementptr inbounds %"class.hermes::sem::Keywords", ptr %kw_9, i32 0, i32 1
  %6 = load ptr, ptr %identEval, align 8
  %cmp10 = icmp eq ptr %5, %6
  br i1 %cmp10, label %land.lhs.true, label %if.end15

land.lhs.true:                                    ; preds = %if.end7
  %call11 = call noundef ptr @_ZNK6hermes3sem17SemanticValidator11curFunctionEv(ptr noundef nonnull align 8 dereferenceable(168) %this1)
  %strictMode = getelementptr inbounds %"class.hermes::sem::FunctionContext", ptr %call11, i32 0, i32 10
  %7 = load i8, ptr %strictMode, align 8
  %tobool = trunc i8 %7 to i1
  br i1 %tobool, label %land.lhs.true12, label %if.end15

land.lhs.true12:                                  ; preds = %land.lhs.true
  %astContext_ = getelementptr inbounds %"class.hermes::sem::SemanticValidator", ptr %this1, i32 0, i32 0
  %8 = load ptr, ptr %astContext_, align 8
  %call13 = call noundef zeroext i1 @_ZNK6hermes7Context13getEnableEvalEv(ptr noundef nonnull align 8 dereferenceable(656) %8)
  br i1 %call13, label %if.then14, label %if.end15

if.then14:                                        ; preds = %land.lhs.true12
  store i1 false, ptr %retval, align 1
  br label %return

if.end15:                                         ; preds = %land.lhs.true12, %land.lhs.true, %if.end7
  store i1 true, ptr %retval, align 1
  br label %return

return:                                           ; preds = %if.end15, %if.then14, %if.then6, %if.then3, %if.then
  %9 = load i1, ptr %retval, align 1
  ret i1 %9
}