; Function Attrs: mustprogress nofree norecurse nosync nounwind willreturn memory(read, inaccessiblemem: none) uwtable
define hidden noundef zeroext i1 @_ZNK6hermes3sem17SemanticValidator8isLValueEPKNS_6ESTree4NodeE(ptr noundef nonnull readonly align 8 captures(none) dereferenceable(168) %this, ptr noundef readonly captures(none) %node) local_unnamed_addr #4 align 2 {
entry:
  %kind_.i.i.i.i.i.i.i = getelementptr inbounds nuw i8, ptr %node, i64 16
  %0 = load i32, ptr %kind_.i.i.i.i.i.i.i, align 8
  switch i32 %0, label %return.fold.split [
    i32 55, label %return
    i32 63, label %if.end4
  ]

if.end4:                                          ; preds = %entry
  %_name = getelementptr inbounds nuw i8, ptr %node, i64 48
  %1 = load ptr, ptr %_name, align 8
  %kw_ = getelementptr inbounds nuw i8, ptr %this, i64 40
  %2 = load ptr, ptr %kw_, align 8
  %cmp = icmp eq ptr %1, %2
  br i1 %cmp, label %return, label %if.end7

if.end7:                                          ; preds = %if.end4
  %identEval = getelementptr inbounds nuw i8, ptr %this, i64 48
  %3 = load ptr, ptr %identEval, align 8
  %cmp10 = icmp eq ptr %1, %3
  br i1 %cmp10, label %land.lhs.true, label %if.end15

land.lhs.true:                                    ; preds = %if.end7
  %funcCtx_.i = getelementptr inbounds nuw i8, ptr %this, i64 152
  %4 = load ptr, ptr %funcCtx_.i, align 8
  %strictMode = getelementptr inbounds nuw i8, ptr %4, i64 80
  %5 = load i8, ptr %strictMode, align 8
  %tobool = trunc i8 %5 to i1
  br i1 %tobool, label %land.lhs.true12, label %if.end15

land.lhs.true12:                                  ; preds = %land.lhs.true
  %6 = load ptr, ptr %this, align 8
  %enableEval_.i = getelementptr inbounds nuw i8, ptr %6, i64 169
  %7 = load i8, ptr %enableEval_.i, align 1
  %tobool.i = trunc i8 %7 to i1
  br i1 %tobool.i, label %return, label %if.end15

if.end15:                                         ; preds = %land.lhs.true12, %land.lhs.true, %if.end7
  br label %return

return.fold.split:                                ; preds = %entry
  br label %return

return:                                           ; preds = %entry, %return.fold.split, %land.lhs.true12, %if.end4, %if.end15
  %retval.0 = phi i1 [ true, %if.end15 ], [ true, %entry ], [ false, %if.end4 ], [ false, %land.lhs.true12 ], [ false, %return.fold.split ]
  ret i1 %retval.0
}